target datalayout = "e-m:e-p270:32:32-p271:32:32-p272:64:64-i64:64-i128:128-f80:128-n8:16:32:64-S128"
target triple = "x86_64-pc-linux-gnu"

%"class.llvm::cl::opt_storage" = type { i32, [4 x i8], %"struct.llvm::cl::OptionValue" }
%"struct.llvm::cl::OptionValue" = type { %"struct.llvm::cl::OptionValueBase.base", [3 x i8] }
%"struct.llvm::cl::OptionValueBase.base" = type { %"class.llvm::cl::OptionValueCopy.base" }
%"class.llvm::cl::OptionValueCopy.base" = type <{ %"struct.llvm::cl::GenericOptionValue", i32, i8 }>
%"struct.llvm::cl::GenericOptionValue" = type { ptr }
%"class.llvm::cl::OptionValueCopy" = type <{ %"struct.llvm::cl::GenericOptionValue", i32, i8, [3 x i8] }>

; Function Attrs: mustprogress nounwind uwtable
define internal void @_ZN4llvm2cl15OptionValueCopyIN12_GLOBAL__N_114PassDebugLevelEE8setValueERKS3_(ptr noundef nonnull align 8 dereferenceable(13) %0, ptr noundef nonnull align 4 dereferenceable(4) %1) #1 align 2 {
  %3 = alloca ptr, align 8
  %4 = alloca ptr, align 8
  store ptr %0, ptr %3, align 8
  store ptr %1, ptr %4, align 8
  %5 = load ptr, ptr %3, align 8
  %6 = getelementptr inbounds nuw %"class.llvm::cl::OptionValueCopy", ptr %5, i32 0, i32 2
  store i8 1, ptr %6, align 4
  %7 = load ptr, ptr %4, align 8
  %8 = load i32, ptr %7, align 4
  %9 = getelementptr inbounds nuw %"class.llvm::cl::OptionValueCopy", ptr %5, i32 0, i32 1
  store i32 %8, ptr %9, align 8
  ret void
}

; Function Attrs: mustprogress nounwind uwtable
define internal noundef nonnull align 8 dereferenceable(16) ptr @_ZN4llvm2cl11OptionValueIN12_GLOBAL__N_114PassDebugLevelEEaSIS3_EERS4_RKT_(ptr noundef nonnull align 8 dereferenceable(16) %0, ptr noundef nonnull align 4 dereferenceable(4) %1) #1 align 2 {
  %3 = alloca ptr, align 8
  %4 = alloca ptr, align 8
  store ptr %0, ptr %3, align 8
  store ptr %1, ptr %4, align 8
  %5 = load ptr, ptr %3, align 8
  %6 = load ptr, ptr %4, align 8
  call void @_ZN4llvm2cl15OptionValueCopyIN12_GLOBAL__N_114PassDebugLevelEE8setValueERKS3_(ptr noundef nonnull align 8 dereferenceable(13) %5, ptr noundef nonnull align 4 dereferenceable(4) %6)
  ret ptr %5
}

; Function Attrs: mustprogress nounwind uwtable
define internal void @_ZN4llvm2cl11opt_storageIN12_GLOBAL__N_114PassDebugLevelELb0ELb0EE8setValueIS3_EEvRKT_b(ptr noundef nonnull align 8 dereferenceable(24) %0, ptr noundef nonnull align 4 dereferenceable(4) %1, i1 noundef zeroext %2) #1 align 2 {
  %4 = alloca ptr, align 8
  %5 = alloca ptr, align 8
  %6 = alloca i8, align 1
  store ptr %0, ptr %4, align 8
  store ptr %1, ptr %5, align 8
  %7 = zext i1 %2 to i8
  store i8 %7, ptr %6, align 1
  %8 = load ptr, ptr %4, align 8
  %9 = load ptr, ptr %5, align 8
  %10 = load i32, ptr %9, align 4
  %11 = getelementptr inbounds nuw %"class.llvm::cl::opt_storage", ptr %8, i32 0, i32 0
  store i32 %10, ptr %11, align 8
  %12 = load i8, ptr %6, align 1
  %13 = trunc i8 %12 to i1
  br i1 %13, label %14, label %18

14:                                               ; preds = %3
  %15 = load ptr, ptr %5, align 8
  %16 = getelementptr inbounds nuw %"class.llvm::cl::opt_storage", ptr %8, i32 0, i32 2
  %17 = call noundef nonnull align 8 dereferenceable(16) ptr @_ZN4llvm2cl11OptionValueIN12_GLOBAL__N_114PassDebugLevelEEaSIS3_EERS4_RKT_(ptr noundef nonnull align 8 dereferenceable(16) %16, ptr noundef nonnull align 4 dereferenceable(4) %15)
  br label %18

18:                                               ; preds = %14, %3
  ret void
}

; Function Attrs: mustprogress nounwind uwtable
define internal noundef nonnull align 4 dereferenceable(4) ptr @_ZNK4llvm2cl15OptionValueCopyIN12_GLOBAL__N_114PassDebugLevelEE8getValueEv(ptr noundef nonnull align 8 dereferenceable(13) %0) #1 align 2 {
  %2 = alloca ptr, align 8
  store ptr %0, ptr %2, align 8
  %3 = load ptr, ptr %2, align 8
  %4 = getelementptr inbounds nuw %"class.llvm::cl::OptionValueCopy", ptr %3, i32 0, i32 1
  ret ptr %4
}

; Function Attrs: mustprogress nounwind uwtable
define internal noundef zeroext i1 @_ZNK4llvm2cl15OptionValueCopyIN12_GLOBAL__N_114PassDebugLevelEE8hasValueEv(ptr noundef nonnull align 8 dereferenceable(13) %0) #1 align 2 {
  %2 = alloca ptr, align 8
  store ptr %0, ptr %2, align 8
  %3 = load ptr, ptr %2, align 8
  %4 = getelementptr inbounds nuw %"class.llvm::cl::OptionValueCopy", ptr %3, i32 0, i32 2
  %5 = load i8, ptr %4, align 4
  %6 = trunc i8 %5 to i1
  ret i1 %6
}

; Function Attrs: mustprogress nounwind uwtable
define internal noundef nonnull align 8 dereferenceable(16) ptr @_ZNK4llvm2cl11opt_storageIN12_GLOBAL__N_114PassDebugLevelELb0ELb0EE10getDefaultEv(ptr noundef nonnull align 8 dereferenceable(24) %0) #1 align 2 {
  %2 = alloca ptr, align 8
  store ptr %0, ptr %2, align 8
  %3 = load ptr, ptr %2, align 8
  %4 = getelementptr inbounds nuw %"class.llvm::cl::opt_storage", ptr %3, i32 0, i32 2
  ret ptr %4
}

; Function Attrs: mustprogress nounwind uwtable
define internal void @_ZN4llvm2cl3optIN12_GLOBAL__N_114PassDebugLevelELb0ENS0_6parserIS3_EEE14setDefaultImplIS3_vEEvv(ptr noundef nonnull align 8 dereferenceable(600) %0) #1 align 2 {
  %2 = alloca ptr, align 8
  %3 = alloca ptr, align 8
  %4 = alloca i32, align 4
  store ptr %0, ptr %2, align 8
  %5 = load ptr, ptr %2, align 8
  %6 = getelementptr inbounds i8, ptr %5, i64 128
  %7 = call noundef nonnull align 8 dereferenceable(16) ptr @_ZNK4llvm2cl11opt_storageIN12_GLOBAL__N_114PassDebugLevelELb0ELb0EE10getDefaultEv(ptr noundef nonnull align 8 dereferenceable(24) %6)
  store ptr %7, ptr %3, align 8
  %8 = load ptr, ptr %3, align 8
  %9 = call noundef zeroext i1 @_ZNK4llvm2cl15OptionValueCopyIN12_GLOBAL__N_114PassDebugLevelEE8hasValueEv(ptr noundef nonnull align 8 dereferenceable(13) %8)
  br i1 %9, label %10, label %14

10:                                               ; preds = %1
  %11 = getelementptr inbounds i8, ptr %5, i64 128
  %12 = load ptr, ptr %3, align 8
  %13 = call noundef nonnull align 4 dereferenceable(4) ptr @_ZNK4llvm2cl15OptionValueCopyIN12_GLOBAL__N_114PassDebugLevelEE8getValueEv(ptr noundef nonnull align 8 dereferenceable(13) %12)
  call void @_ZN4llvm2cl11opt_storageIN12_GLOBAL__N_114PassDebugLevelELb0ELb0EE8setValueIS3_EEvRKT_b(ptr noundef nonnull align 8 dereferenceable(24) %11, ptr noundef nonnull align 4 dereferenceable(4) %13, i1 noundef zeroext false)
  br label %16

14:                                               ; preds = %1
  %15 = getelementptr inbounds i8, ptr %5, i64 128
  store i32 0, ptr %4, align 4
  call void @_ZN4llvm2cl11opt_storageIN12_GLOBAL__N_114PassDebugLevelELb0ELb0EE8setValueIS3_EEvRKT_b(ptr noundef nonnull align 8 dereferenceable(24) %15, ptr noundef nonnull align 4 dereferenceable(4) %4, i1 noundef zeroext false)
  br label %16

16:                                               ; preds = %14, %10
  ret void
}

; Function Attrs: mustprogress nounwind uwtable
define internal void @_ZN4llvm2cl3optIN12_GLOBAL__N_114PassDebugLevelELb0ENS0_6parserIS3_EEE10setDefaultEv(ptr noundef nonnull align 8 dereferenceable(600) %0) unnamed_addr #1 align 2 {
  %2 = alloca ptr, align 8
  store ptr %0, ptr %2, align 8
  %3 = load ptr, ptr %2, align 8
  call void @_ZN4llvm2cl3optIN12_GLOBAL__N_114PassDebugLevelELb0ENS0_6parserIS3_EEE14setDefaultImplIS3_vEEvv(ptr noundef nonnull align 8 dereferenceable(600) %3)
  ret void
}