; Function Attrs: mustprogress nofree norecurse nosync nounwind willreturn memory(argmem: readwrite) uwtable
define internal void @_ZN4llvm2cl3optIN12_GLOBAL__N_114PassDebugLevelELb0ENS0_6parserIS3_EEE10setDefaultEv(ptr nocapture noundef nonnull align 8 dereferenceable(600) %0) unnamed_addr #17 align 2 {
  %2 = getelementptr inbounds i8, ptr %0, i64 148
  %.val.i = load i8, ptr %2, align 4
  %3 = trunc i8 %.val.i to i1
  %4 = getelementptr inbounds i8, ptr %0, i64 144
  %.val4.i = load i32, ptr %4, align 8
  %storemerge.i = select i1 %3, i32 %.val4.i, i32 0
  %5 = getelementptr inbounds i8, ptr %0, i64 128
  store i32 %storemerge.i, ptr %5, align 8
  ret void
}